target datalayout = "e-m:e-p270:32:32-p271:32:32-p272:64:64-i64:64-i128:128-f80:128-n8:16:32:64-S128"
target triple = "x86_64-pc-linux-gnu"

%struct.METHOD = type { i64, i64, i64, i64, ptr }

; Function Attrs: nounwind sspstrong uwtable
define internal void @bm_mark_and_move(ptr noundef %0) #0 {
  %2 = alloca ptr, align 8
  %3 = alloca ptr, align 8
  %4 = alloca i64, align 8
  store ptr %0, ptr %2, align 8, !tbaa !11
  call void @llvm.lifetime.start.p0(i64 8, ptr %3) #25
  %5 = load ptr, ptr %2, align 8, !tbaa !11
  store ptr %5, ptr %3, align 8, !tbaa !95
  %6 = load ptr, ptr %3, align 8, !tbaa !95
  %7 = getelementptr inbounds nuw %struct.METHOD, ptr %6, i32 0, i32 0
  call void @rb_gc_mark_and_move(ptr noundef %7)
  %8 = load ptr, ptr %3, align 8, !tbaa !95
  %9 = getelementptr inbounds nuw %struct.METHOD, ptr %8, i32 0, i32 1
  call void @rb_gc_mark_and_move(ptr noundef %9)
  %10 = load ptr, ptr %3, align 8, !tbaa !95
  %11 = getelementptr inbounds nuw %struct.METHOD, ptr %10, i32 0, i32 2
  call void @rb_gc_mark_and_move(ptr noundef %11)
  %12 = load ptr, ptr %3, align 8, !tbaa !95
  %13 = getelementptr inbounds nuw %struct.METHOD, ptr %12, i32 0, i32 3
  call void @rb_gc_mark_and_move(ptr noundef %13)
  br label %14

14:                                               ; preds = %1
  call void @llvm.lifetime.start.p0(i64 8, ptr %4) #25
  %15 = load ptr, ptr %3, align 8, !tbaa !95
  %16 = getelementptr inbounds nuw %struct.METHOD, ptr %15, i32 0, i32 4
  %17 = load ptr, ptr %16, align 8, !tbaa !108
  %18 = ptrtoint ptr %17 to i64
  store i64 %18, ptr %4, align 8, !tbaa !7
  call void @rb_gc_mark_and_move(ptr noundef %4)
  %19 = load i64, ptr %4, align 8, !tbaa !7
  %20 = load ptr, ptr %3, align 8, !tbaa !95
  %21 = getelementptr inbounds nuw %struct.METHOD, ptr %20, i32 0, i32 4
  %22 = load ptr, ptr %21, align 8, !tbaa !108
  %23 = ptrtoint ptr %22 to i64
  %24 = icmp ne i64 %19, %23
  br i1 %24, label %25, label %30

25:                                               ; preds = %14
  %26 = load i64, ptr %4, align 8, !tbaa !7
  %27 = inttoptr i64 %26 to ptr
  %28 = load ptr, ptr %3, align 8, !tbaa !95
  %29 = getelementptr inbounds nuw %struct.METHOD, ptr %28, i32 0, i32 4
  store ptr %27, ptr %29, align 8, !tbaa !108
  br label %30

30:                                               ; preds = %25, %14
  call void @llvm.lifetime.end.p0(i64 8, ptr %4) #25
  br label %31

31:                                               ; preds = %30
  br label %32

32:                                               ; preds = %31
  call void @llvm.lifetime.end.p0(i64 8, ptr %3) #25
  ret void
}