; Function Attrs: nounwind sspstrong uwtable
define internal void @bm_mark_and_move(ptr noundef %0) #0 {
  %2 = alloca i64, align 8
  tail call void @rb_gc_mark_and_move(ptr noundef %0) #21
  %3 = getelementptr inbounds nuw i8, ptr %0, i64 8
  tail call void @rb_gc_mark_and_move(ptr noundef nonnull %3) #21
  %4 = getelementptr inbounds nuw i8, ptr %0, i64 16
  tail call void @rb_gc_mark_and_move(ptr noundef nonnull %4) #21
  %5 = getelementptr inbounds nuw i8, ptr %0, i64 24
  tail call void @rb_gc_mark_and_move(ptr noundef nonnull %5) #21
  call void @llvm.lifetime.start.p0(i64 8, ptr nonnull %2) #21
  %6 = getelementptr inbounds nuw i8, ptr %0, i64 32
  %7 = load ptr, ptr %6, align 8, !tbaa !128
  %8 = ptrtoint ptr %7 to i64
  store i64 %8, ptr %2, align 8, !tbaa !36
  call void @rb_gc_mark_and_move(ptr noundef nonnull %2) #21
  %9 = load i64, ptr %2, align 8, !tbaa !36
  %10 = load ptr, ptr %6, align 8, !tbaa !128
  %11 = ptrtoint ptr %10 to i64
  %.not = icmp eq i64 %9, %11
  br i1 %.not, label %14, label %12

12:                                               ; preds = %1
  %13 = inttoptr i64 %9 to ptr
  store ptr %13, ptr %6, align 8, !tbaa !128
  br label %14

14:                                               ; preds = %12, %1
  call void @llvm.lifetime.end.p0(i64 8, ptr nonnull %2) #21
  ret void
}